target datalayout = "e-m:e-p270:32:32-p271:32:32-p272:64:64-i64:64-i128:128-f80:128-n8:16:32:64-S128"
target triple = "x86_64-pc-linux-gnu"

%struct.sparse_checkout_reapply_opts = type { i32, i32 }

@the_repository = external global ptr, align 8
@core_apply_sparse_checkout = external global i32, align 4
@reapply_opts = internal global %struct.sparse_checkout_reapply_opts zeroinitializer, align 4
@.str.62 = private unnamed_addr constant [58 x i8] c"must be in a sparse-checkout to reapply sparsity patterns\00", align 1
@builtin_sparse_checkout_reapply_usage = internal constant [2 x ptr] [ptr @.str.63, ptr null], align 16

; Function Attrs: nounwind uwtable
define internal i32 @sparse_checkout_reapply(i32 noundef %0, ptr noundef %1, ptr noundef %2, ptr noundef %3) #0 {
  %5 = alloca i32, align 4
  %6 = alloca i32, align 4
  %7 = alloca ptr, align 8
  %8 = alloca ptr, align 8
  %9 = alloca ptr, align 8
  store i32 %0, ptr %6, align 4, !tbaa !4
  store ptr %1, ptr %7, align 8, !tbaa !8
  store ptr %2, ptr %8, align 8, !tbaa !11
  store ptr %3, ptr %9, align 8, !tbaa !13
  call void @setup_work_tree()
  %10 = load i32, ptr @core_apply_sparse_checkout, align 4, !tbaa !4
  %11 = icmp ne i32 %10, 0
  br i1 %11, label %14, label %12

12:                                               ; preds = %4
  %13 = call ptr @_(ptr noundef @.str.62)
  call void (ptr, ...) @die(ptr noundef %13) #10
  unreachable

14:                                               ; preds = %4
  store i32 -1, ptr @reapply_opts, align 4, !tbaa !82
  store i32 -1, ptr getelementptr inbounds nuw (%struct.sparse_checkout_reapply_opts, ptr @reapply_opts, i32 0, i32 1), align 4, !tbaa !84
  %15 = load i32, ptr %6, align 4, !tbaa !4
  %16 = load ptr, ptr %7, align 8, !tbaa !8
  %17 = load ptr, ptr %8, align 8, !tbaa !11
  %18 = call i32 @parse_options(i32 noundef %15, ptr noundef %16, ptr noundef %17, ptr noundef @sparse_checkout_reapply.builtin_sparse_checkout_reapply_options, ptr noundef @builtin_sparse_checkout_reapply_usage, i32 noundef 0)
  store i32 %18, ptr %6, align 4, !tbaa !4
  %19 = load ptr, ptr @the_repository, align 8, !tbaa !13
  %20 = call i32 @repo_read_index(ptr noundef %19)
  %21 = call i32 @update_modes(ptr noundef @reapply_opts, ptr noundef getelementptr inbounds nuw (%struct.sparse_checkout_reapply_opts, ptr @reapply_opts, i32 0, i32 1))
  %22 = icmp ne i32 %21, 0
  br i1 %22, label %23, label %24

23:                                               ; preds = %14
  store i32 1, ptr %5, align 4
  br label %26

24:                                               ; preds = %14
  %25 = call i32 @update_working_directory(ptr noundef null)
  store i32 %25, ptr %5, align 4
  br label %26

26:                                               ; preds = %24, %23
  %27 = load i32, ptr %5, align 4
  ret i32 %27
}