; Function Attrs: nounwind uwtable
define internal i32 @sparse_checkout_reapply(i32 noundef %0, ptr noundef %1, ptr noundef %2, ptr readnone captures(none) %3) #0 {
  tail call void @setup_work_tree() #13
  %5 = load i32, ptr @core_apply_sparse_checkout, align 4, !tbaa !37
  %.not = icmp eq i32 %5, 0
  br i1 %.not, label %6, label %8

6:                                                ; preds = %4
  %7 = tail call fastcc ptr @_(ptr noundef nonnull @.str.62)
  tail call void (ptr, ...) @die(ptr noundef %7) #14
  unreachable

8:                                                ; preds = %4
  store i32 -1, ptr @reapply_opts, align 4, !tbaa !75
  store i32 -1, ptr getelementptr inbounds nuw (i8, ptr @reapply_opts, i64 4), align 4, !tbaa !77
  %9 = tail call i32 @parse_options(i32 noundef %0, ptr noundef %1, ptr noundef %2, ptr noundef nonnull @sparse_checkout_reapply.builtin_sparse_checkout_reapply_options, ptr noundef nonnull @builtin_sparse_checkout_reapply_usage, i32 noundef 0) #13
  %10 = load ptr, ptr @the_repository, align 8, !tbaa !17
  %11 = tail call i32 @repo_read_index(ptr noundef %10) #13
  %12 = tail call fastcc i32 @update_modes(ptr noundef nonnull @reapply_opts, ptr noundef nonnull getelementptr inbounds nuw (i8, ptr @reapply_opts, i64 4))
  %.not3 = icmp eq i32 %12, 0
  br i1 %.not3, label %13, label %15

13:                                               ; preds = %8
  %14 = tail call fastcc i32 @update_working_directory(ptr noundef null)
  br label %15

15:                                               ; preds = %8, %13
  %.0 = phi i32 [ %14, %13 ], [ 1, %8 ]
  ret i32 %.0
}